; Function Attrs: mustprogress uwtable
define hidden noundef zeroext i1 @_ZN6casadi14is_permutationERKSt6vectorIxSaIxEE(ptr noundef nonnull readonly align 8 captures(none) dereferenceable(24) %0) local_unnamed_addr #3 personality ptr @__gxx_personality_v0 {
  %2 = alloca %"class.std::set", align 8
  call void @llvm.lifetime.start.p0(i64 48, ptr nonnull %2) #24
  %3 = load ptr, ptr %0, align 8, !tbaa !70
  %4 = getelementptr inbounds nuw i8, ptr %0, i64 8
  %5 = load ptr, ptr %4, align 8, !tbaa !70
  call void @_ZNSt3setIxSt4lessIxESaIxEEC2IN9__gnu_cxx17__normal_iteratorIPKxSt6vectorIxS2_EEEEET_SC_(ptr noundef nonnull align 8 dereferenceable(48) %2, ptr %3, ptr %5)
  %6 = getelementptr inbounds nuw i8, ptr %2, i64 40
  %7 = load i64, ptr %6, align 8, !tbaa !86
  %8 = load ptr, ptr %4, align 8, !tbaa !31
  %9 = load ptr, ptr %0, align 8, !tbaa !34
  %10 = ptrtoint ptr %8 to i64
  %11 = ptrtoint ptr %9 to i64
  %12 = sub i64 %10, %11
  %13 = ashr exact i64 %12, 3
  %14 = icmp eq i64 %7, %13
  br i1 %14, label %15, label %28

15:                                               ; preds = %1
  %16 = getelementptr inbounds nuw i8, ptr %2, i64 24
  %17 = load ptr, ptr %16, align 8, !tbaa !91
  %18 = getelementptr inbounds nuw i8, ptr %17, i64 32
  %19 = load i64, ptr %18, align 8, !tbaa !40
  %20 = icmp eq i64 %19, 0
  br i1 %20, label %21, label %28

21:                                               ; preds = %15
  %22 = getelementptr inbounds nuw i8, ptr %2, i64 8
  %23 = call noundef ptr @_ZSt18_Rb_tree_decrementPKSt18_Rb_tree_node_base(ptr noundef nonnull %22) #28
  %24 = getelementptr inbounds nuw i8, ptr %23, i64 32
  %25 = load i64, ptr %24, align 8, !tbaa !40
  %26 = add nsw i64 %7, -1
  %27 = icmp eq i64 %25, %26
  br label %28

28:                                               ; preds = %21, %15, %1
  %29 = phi i1 [ false, %15 ], [ false, %1 ], [ %27, %21 ]
  %30 = getelementptr inbounds nuw i8, ptr %2, i64 16
  %31 = load ptr, ptr %30, align 8, !tbaa !92
  invoke void @_ZNSt8_Rb_treeIxxSt9_IdentityIxESt4lessIxESaIxEE8_M_eraseEPSt13_Rb_tree_nodeIxE(ptr noundef nonnull align 8 dereferenceable(48) %2, ptr noundef %31)
          to label %_ZNSt3setIxSt4lessIxESaIxEED2Ev.exit unwind label %32

32:                                               ; preds = %28
  %33 = landingpad { ptr, i32 }
          catch ptr null
  %34 = extractvalue { ptr, i32 } %33, 0
  call void @__clang_call_terminate(ptr %34) #29
  unreachable

_ZNSt3setIxSt4lessIxESaIxEED2Ev.exit:             ; preds = %28
  call void @llvm.lifetime.end.p0(i64 48, ptr nonnull %2) #24
  ret i1 %29
}